target datalayout = "e-m:e-p270:32:32-p271:32:32-p272:64:64-i64:64-i128:128-f80:128-n8:16:32:64-S128"
target triple = "x86_64-pc-linux-gnu"

%struct._object = type { %union.anon.26, ptr }
%union.anon.26 = type { i64 }
%struct.PyCompilerFlags = type { i32, i32 }
%struct._PyCompiler = type { ptr, ptr, %struct._PyFutureFeatures, %struct.PyCompilerFlags, i32, i32, ptr, ptr, ptr, i8 }
%struct._PyFutureFeatures = type { i32, %struct._Py_SourceLocation }
%struct._Py_SourceLocation = type { i32, i32, i32, i32 }
%struct.compiler_unit = type { ptr, i32, ptr, ptr, ptr, ptr, i32, i32, [21 x %struct._PyCompile_FBlockInfo], %struct._PyCompile_CodeUnitMetadata }
%struct._PyCompile_FBlockInfo = type { i32, %struct._PyJumpTargetLabel, %struct._Py_SourceLocation, %struct._PyJumpTargetLabel, ptr }
%struct._PyJumpTargetLabel = type { i32 }
%struct._PyCompile_CodeUnitMetadata = type { ptr, ptr, ptr, ptr, ptr, ptr, ptr, ptr, i64, i64, i64, i32 }
%struct.anon.27 = type { i32, i32 }
%struct._mod = type { i32, %union.anon.806 }
%union.anon.806 = type { %struct.anon.807 }
%struct.anon.807 = type { ptr, ptr }

@PyExc_TypeError = external global ptr, align 8
@.str.10 = private unnamed_addr constant [16 x i8] c"expected an AST\00", align 1
@.str.11 = private unnamed_addr constant [9 x i8] c"argcount\00", align 1
@.str.12 = private unnamed_addr constant [16 x i8] c"posonlyargcount\00", align 1
@.str.13 = private unnamed_addr constant [15 x i8] c"kwonlyargcount\00", align 1

; Function Attrs: alwaysinline nounwind uwtable
define internal i32 @_Py_IsImmortal(ptr noundef %0) #4 {
  %2 = alloca ptr, align 8
  store ptr %0, ptr %2, align 8, !tbaa !32
  %3 = load ptr, ptr %2, align 8, !tbaa !32
  %4 = getelementptr inbounds nuw %struct._object, ptr %3, i32 0, i32 0
  %5 = getelementptr inbounds nuw %struct.anon.27, ptr %4, i32 0, i32 0
  %6 = load i32, ptr %5, align 8, !tbaa !11
  %7 = icmp slt i32 %6, 0
  %8 = zext i1 %7 to i32
  ret i32 %8
}

; Function Attrs: alwaysinline nounwind uwtable
define internal void @Py_DECREF(ptr noundef %0) #4 {
  %2 = alloca ptr, align 8
  store ptr %0, ptr %2, align 8, !tbaa !32
  %3 = load ptr, ptr %2, align 8, !tbaa !32
  %4 = call i32 @_Py_IsImmortal(ptr noundef %3)
  %5 = icmp ne i32 %4, 0
  br i1 %5, label %6, label %7

6:                                                ; preds = %1
  br label %16

7:                                                ; preds = %1
  %8 = load ptr, ptr %2, align 8, !tbaa !32
  %9 = getelementptr inbounds nuw %struct._object, ptr %8, i32 0, i32 0
  %10 = getelementptr inbounds nuw %struct.anon.27, ptr %9, i32 0, i32 0
  %11 = load i32, ptr %10, align 8, !tbaa !11
  %12 = add i32 %11, -1
  store i32 %12, ptr %10, align 8, !tbaa !11
  %13 = icmp eq i32 %12, 0
  br i1 %13, label %14, label %16

14:                                               ; preds = %7
  %15 = load ptr, ptr %2, align 8, !tbaa !32
  call void @_Py_Dealloc(ptr noundef %15)
  br label %16

16:                                               ; preds = %6, %14, %7
  ret void
}

; Function Attrs: nounwind uwtable
define hidden ptr @_PyCompile_InstrSequence(ptr noundef %0) #0 {
  %2 = alloca ptr, align 8
  store ptr %0, ptr %2, align 8, !tbaa !4
  %3 = load ptr, ptr %2, align 8, !tbaa !4
  %4 = getelementptr inbounds nuw %struct._PyCompiler, ptr %3, i32 0, i32 7
  %5 = load ptr, ptr %4, align 8, !tbaa !48
  %6 = getelementptr inbounds nuw %struct.compiler_unit, ptr %5, i32 0, i32 5
  %7 = load ptr, ptr %6, align 8, !tbaa !71
  ret ptr %7
}

; Function Attrs: inlinehint nounwind uwtable
define internal void @Py_XDECREF(ptr noundef %0) #3 {
  %2 = alloca ptr, align 8
  store ptr %0, ptr %2, align 8, !tbaa !32
  %3 = load ptr, ptr %2, align 8, !tbaa !32
  %4 = icmp ne ptr %3, null
  br i1 %4, label %5, label %7

5:                                                ; preds = %1
  %6 = load ptr, ptr %2, align 8, !tbaa !32
  call void @Py_DECREF(ptr noundef %6)
  br label %7

7:                                                ; preds = %5, %1
  ret void
}

; Function Attrs: nounwind uwtable
define dso_local ptr @_PyCompile_CodeGen(ptr noundef %0, ptr noundef %1, ptr noundef %2, i32 noundef %3, i32 noundef %4) #0 {
  %6 = alloca ptr, align 8
  %7 = alloca ptr, align 8
  %8 = alloca ptr, align 8
  %9 = alloca ptr, align 8
  %10 = alloca i32, align 4
  %11 = alloca i32, align 4
  %12 = alloca ptr, align 8
  %13 = alloca ptr, align 8
  %14 = alloca i32, align 4
  %15 = alloca ptr, align 8
  %16 = alloca ptr, align 8
  %17 = alloca ptr, align 8
  %18 = alloca ptr, align 8
  %19 = alloca ptr, align 8
  %20 = alloca i32, align 4
  %21 = alloca ptr, align 8
  %22 = alloca i32, align 4
  %23 = alloca ptr, align 8
  %24 = alloca i32, align 4
  %25 = alloca i32, align 4
  store ptr %0, ptr %7, align 8, !tbaa !32
  store ptr %1, ptr %8, align 8, !tbaa !32
  store ptr %2, ptr %9, align 8, !tbaa !42
  store i32 %3, ptr %10, align 4, !tbaa !50
  store i32 %4, ptr %11, align 4, !tbaa !50
  call void @llvm.lifetime.start.p0(i64 8, ptr %12) #8
  store ptr null, ptr %12, align 8, !tbaa !32
  call void @llvm.lifetime.start.p0(i64 8, ptr %13) #8
  store ptr null, ptr %13, align 8, !tbaa !32
  %26 = load ptr, ptr %7, align 8, !tbaa !32
  %27 = call i32 @PyAST_Check(ptr noundef %26)
  %28 = icmp ne i32 %27, 0
  br i1 %28, label %31, label %29

29:                                               ; preds = %5
  %30 = load ptr, ptr @PyExc_TypeError, align 8, !tbaa !32
  call void @PyErr_SetString(ptr noundef %30, ptr noundef @.str.10)
  store ptr null, ptr %6, align 8
  store i32 1, ptr %14, align 4
  br label %177

31:                                               ; preds = %5
  call void @llvm.lifetime.start.p0(i64 8, ptr %15) #8
  %32 = call ptr @_PyArena_New()
  store ptr %32, ptr %15, align 8, !tbaa !127
  %33 = load ptr, ptr %15, align 8, !tbaa !127
  %34 = icmp eq ptr %33, null
  br i1 %34, label %35, label %36

35:                                               ; preds = %31
  store ptr null, ptr %6, align 8
  store i32 1, ptr %14, align 4
  br label %176

36:                                               ; preds = %31
  call void @llvm.lifetime.start.p0(i64 8, ptr %16) #8
  %37 = load ptr, ptr %7, align 8, !tbaa !32
  %38 = load ptr, ptr %15, align 8, !tbaa !127
  %39 = load i32, ptr %11, align 4, !tbaa !50
  %40 = call ptr @PyAST_obj2mod(ptr noundef %37, ptr noundef %38, i32 noundef %39)
  store ptr %40, ptr %16, align 8, !tbaa !125
  %41 = load ptr, ptr %16, align 8, !tbaa !125
  %42 = icmp eq ptr %41, null
  br i1 %42, label %47, label %43

43:                                               ; preds = %36
  %44 = load ptr, ptr %16, align 8, !tbaa !125
  %45 = call i32 @_PyAST_Validate(ptr noundef %44)
  %46 = icmp ne i32 %45, 0
  br i1 %46, label %49, label %47

47:                                               ; preds = %43, %36
  %48 = load ptr, ptr %15, align 8, !tbaa !127
  call void @_PyArena_Free(ptr noundef %48)
  store ptr null, ptr %6, align 8
  store i32 1, ptr %14, align 4
  br label %175

49:                                               ; preds = %43
  call void @llvm.lifetime.start.p0(i64 8, ptr %17) #8
  %50 = load ptr, ptr %16, align 8, !tbaa !125
  %51 = load ptr, ptr %8, align 8, !tbaa !32
  %52 = load ptr, ptr %9, align 8, !tbaa !42
  %53 = load i32, ptr %10, align 4, !tbaa !50
  %54 = load ptr, ptr %15, align 8, !tbaa !127
  %55 = call ptr @new_compiler(ptr noundef %50, ptr noundef %51, ptr noundef %52, i32 noundef %53, ptr noundef %54)
  store ptr %55, ptr %17, align 8, !tbaa !4
  %56 = load ptr, ptr %17, align 8, !tbaa !4
  %57 = icmp eq ptr %56, null
  br i1 %57, label %58, label %60

58:                                               ; preds = %49
  %59 = load ptr, ptr %15, align 8, !tbaa !127
  call void @_PyArena_Free(ptr noundef %59)
  store ptr null, ptr %6, align 8
  store i32 1, ptr %14, align 4
  br label %174

60:                                               ; preds = %49
  %61 = load ptr, ptr %17, align 8, !tbaa !4
  %62 = getelementptr inbounds nuw %struct._PyCompiler, ptr %61, i32 0, i32 9
  store i8 1, ptr %62, align 8, !tbaa !83
  %63 = call ptr @PyDict_New()
  store ptr %63, ptr %13, align 8, !tbaa !32
  %64 = load ptr, ptr %13, align 8, !tbaa !32
  %65 = icmp eq ptr %64, null
  br i1 %65, label %66, label %67

66:                                               ; preds = %60
  store ptr null, ptr %6, align 8
  store i32 1, ptr %14, align 4
  br label %174

67:                                               ; preds = %60
  %68 = load ptr, ptr %17, align 8, !tbaa !4
  %69 = load ptr, ptr %16, align 8, !tbaa !125
  %70 = call i32 @compiler_codegen(ptr noundef %68, ptr noundef %69)
  %71 = icmp slt i32 %70, 0
  br i1 %71, label %72, label %73

72:                                               ; preds = %67
  br label %168

73:                                               ; preds = %67
  %74 = load ptr, ptr %17, align 8, !tbaa !4
  %75 = getelementptr inbounds nuw %struct._PyCompiler, ptr %74, i32 0, i32 7
  %76 = load ptr, ptr %75, align 8, !tbaa !48
  %77 = getelementptr inbounds nuw %struct.compiler_unit, ptr %76, i32 0, i32 9
  store ptr %77, ptr %18, align 8, !tbaa !42
  br label %78

78:                                               ; preds = %73
  call void @llvm.lifetime.start.p0(i64 8, ptr %19) #8
  %79 = load ptr, ptr %18, align 8, !tbaa !42
  %80 = getelementptr inbounds nuw %struct._PyCompile_CodeUnitMetadata, ptr %79, i32 0, i32 8
  %81 = load i64, ptr %80, align 8, !tbaa !147
  %82 = call ptr @PyLong_FromLong(i64 noundef %81)
  store ptr %82, ptr %19, align 8, !tbaa !32
  %83 = load ptr, ptr %19, align 8, !tbaa !32
  %84 = icmp eq ptr %83, null
  br i1 %84, label %85, label %86

85:                                               ; preds = %78
  store i32 2, ptr %14, align 4
  br label %96

86:                                               ; preds = %78
  call void @llvm.lifetime.start.p0(i64 4, ptr %20) #8
  %87 = load ptr, ptr %13, align 8, !tbaa !32
  %88 = load ptr, ptr %19, align 8, !tbaa !32
  %89 = call i32 @PyDict_SetItemString(ptr noundef %87, ptr noundef @.str.11, ptr noundef %88)
  store i32 %89, ptr %20, align 4, !tbaa !50
  %90 = load ptr, ptr %19, align 8, !tbaa !32
  call void @Py_XDECREF(ptr noundef %90)
  %91 = load i32, ptr %20, align 4, !tbaa !50
  %92 = icmp slt i32 %91, 0
  br i1 %92, label %93, label %94

93:                                               ; preds = %86
  store i32 2, ptr %14, align 4
  br label %95

94:                                               ; preds = %86
  store i32 0, ptr %14, align 4
  br label %95

95:                                               ; preds = %93, %94
  call void @llvm.lifetime.end.p0(i64 4, ptr %20) #8
  br label %96

96:                                               ; preds = %85, %95
  call void @llvm.lifetime.end.p0(i64 8, ptr %19) #8
  %97 = load i32, ptr %14, align 4
  switch i32 %97, label %174 [
    i32 0, label %98
    i32 2, label %168
  ]

98:                                               ; preds = %96
  br label %99

99:                                               ; preds = %98
  br label %100

100:                                              ; preds = %99
  br label %101

101:                                              ; preds = %100
  call void @llvm.lifetime.start.p0(i64 8, ptr %21) #8
  %102 = load ptr, ptr %18, align 8, !tbaa !42
  %103 = getelementptr inbounds nuw %struct._PyCompile_CodeUnitMetadata, ptr %102, i32 0, i32 9
  %104 = load i64, ptr %103, align 8, !tbaa !148
  %105 = call ptr @PyLong_FromLong(i64 noundef %104)
  store ptr %105, ptr %21, align 8, !tbaa !32
  %106 = load ptr, ptr %21, align 8, !tbaa !32
  %107 = icmp eq ptr %106, null
  br i1 %107, label %108, label %109

108:                                              ; preds = %101
  store i32 2, ptr %14, align 4
  br label %119

109:                                              ; preds = %101
  call void @llvm.lifetime.start.p0(i64 4, ptr %22) #8
  %110 = load ptr, ptr %13, align 8, !tbaa !32
  %111 = load ptr, ptr %21, align 8, !tbaa !32
  %112 = call i32 @PyDict_SetItemString(ptr noundef %110, ptr noundef @.str.12, ptr noundef %111)
  store i32 %112, ptr %22, align 4, !tbaa !50
  %113 = load ptr, ptr %21, align 8, !tbaa !32
  call void @Py_XDECREF(ptr noundef %113)
  %114 = load i32, ptr %22, align 4, !tbaa !50
  %115 = icmp slt i32 %114, 0
  br i1 %115, label %116, label %117

116:                                              ; preds = %109
  store i32 2, ptr %14, align 4
  br label %118

117:                                              ; preds = %109
  store i32 0, ptr %14, align 4
  br label %118

118:                                              ; preds = %116, %117
  call void @llvm.lifetime.end.p0(i64 4, ptr %22) #8
  br label %119

119:                                              ; preds = %108, %118
  call void @llvm.lifetime.end.p0(i64 8, ptr %21) #8
  %120 = load i32, ptr %14, align 4
  switch i32 %120, label %174 [
    i32 0, label %121
    i32 2, label %168
  ]

121:                                              ; preds = %119
  br label %122

122:                                              ; preds = %121
  br label %123

123:                                              ; preds = %122
  br label %124

124:                                              ; preds = %123
  call void @llvm.lifetime.start.p0(i64 8, ptr %23) #8
  %125 = load ptr, ptr %18, align 8, !tbaa !42
  %126 = getelementptr inbounds nuw %struct._PyCompile_CodeUnitMetadata, ptr %125, i32 0, i32 10
  %127 = load i64, ptr %126, align 8, !tbaa !149
  %128 = call ptr @PyLong_FromLong(i64 noundef %127)
  store ptr %128, ptr %23, align 8, !tbaa !32
  %129 = load ptr, ptr %23, align 8, !tbaa !32
  %130 = icmp eq ptr %129, null
  br i1 %130, label %131, label %132

131:                                              ; preds = %124
  store i32 2, ptr %14, align 4
  br label %142

132:                                              ; preds = %124
  call void @llvm.lifetime.start.p0(i64 4, ptr %24) #8
  %133 = load ptr, ptr %13, align 8, !tbaa !32
  %134 = load ptr, ptr %23, align 8, !tbaa !32
  %135 = call i32 @PyDict_SetItemString(ptr noundef %133, ptr noundef @.str.13, ptr noundef %134)
  store i32 %135, ptr %24, align 4, !tbaa !50
  %136 = load ptr, ptr %23, align 8, !tbaa !32
  call void @Py_XDECREF(ptr noundef %136)
  %137 = load i32, ptr %24, align 4, !tbaa !50
  %138 = icmp slt i32 %137, 0
  br i1 %138, label %139, label %140

139:                                              ; preds = %132
  store i32 2, ptr %14, align 4
  br label %141

140:                                              ; preds = %132
  store i32 0, ptr %14, align 4
  br label %141

141:                                              ; preds = %139, %140
  call void @llvm.lifetime.end.p0(i64 4, ptr %24) #8
  br label %142

142:                                              ; preds = %131, %141
  call void @llvm.lifetime.end.p0(i64 8, ptr %23) #8
  %143 = load i32, ptr %14, align 4
  switch i32 %143, label %174 [
    i32 0, label %144
    i32 2, label %168
  ]

144:                                              ; preds = %142
  br label %145

145:                                              ; preds = %144
  br label %146

146:                                              ; preds = %145
  %147 = load ptr, ptr %16, align 8, !tbaa !125
  %148 = getelementptr inbounds nuw %struct._mod, ptr %147, i32 0, i32 0
  %149 = load i32, ptr %148, align 8, !tbaa !129
  %150 = icmp ne i32 %149, 3
  %151 = zext i1 %150 to i32
  store i32 %151, ptr %25, align 4, !tbaa !50
  %152 = load ptr, ptr %17, align 8, !tbaa !4
  %153 = load i32, ptr %25, align 4, !tbaa !50
  %154 = call i32 @_PyCodegen_AddReturnAtEnd(ptr noundef %152, i32 noundef %153)
  %155 = icmp slt i32 %154, 0
  br i1 %155, label %156, label %157

156:                                              ; preds = %146
  br label %168

157:                                              ; preds = %146
  %158 = load ptr, ptr %17, align 8, !tbaa !4
  %159 = call ptr @_PyCompile_InstrSequence(ptr noundef %158)
  %160 = call i32 @_PyInstructionSequence_ApplyLabelMap(ptr noundef %159)
  %161 = icmp slt i32 %160, 0
  br i1 %161, label %162, label %163

162:                                              ; preds = %157
  store ptr null, ptr %6, align 8
  store i32 1, ptr %14, align 4
  br label %174

163:                                              ; preds = %157
  %164 = load ptr, ptr %17, align 8, !tbaa !4
  %165 = call ptr @_PyCompile_InstrSequence(ptr noundef %164)
  %166 = load ptr, ptr %13, align 8, !tbaa !32
  %167 = call ptr (i64, ...) @PyTuple_Pack(i64 noundef 2, ptr noundef %165, ptr noundef %166)
  store ptr %167, ptr %12, align 8, !tbaa !32
  br label %168

168:                                              ; preds = %163, %142, %119, %96, %156, %72
  %169 = load ptr, ptr %13, align 8, !tbaa !32
  call void @Py_XDECREF(ptr noundef %169)
  %170 = load ptr, ptr %17, align 8, !tbaa !4
  call void @_PyCompile_ExitScope(ptr noundef %170)
  %171 = load ptr, ptr %17, align 8, !tbaa !4
  call void @compiler_free(ptr noundef %171)
  %172 = load ptr, ptr %15, align 8, !tbaa !127
  call void @_PyArena_Free(ptr noundef %172)
  %173 = load ptr, ptr %12, align 8, !tbaa !32
  store ptr %173, ptr %6, align 8
  store i32 1, ptr %14, align 4
  br label %174

174:                                              ; preds = %168, %162, %142, %119, %96, %66, %58
  call void @llvm.lifetime.end.p0(i64 8, ptr %17) #8
  br label %175

175:                                              ; preds = %174, %47
  call void @llvm.lifetime.end.p0(i64 8, ptr %16) #8
  br label %176

176:                                              ; preds = %175, %35
  call void @llvm.lifetime.end.p0(i64 8, ptr %15) #8
  br label %177

177:                                              ; preds = %176, %29
  call void @llvm.lifetime.end.p0(i64 8, ptr %13) #8
  call void @llvm.lifetime.end.p0(i64 8, ptr %12) #8
  %178 = load ptr, ptr %6, align 8
  ret ptr %178
}