; Function Attrs: nounwind uwtable
define dso_local ptr @_PyCompile_CodeGen(ptr noundef %0, ptr noundef %1, ptr noundef %2, i32 noundef %3, i32 noundef %4) local_unnamed_addr #0 {
  %6 = tail call i32 @PyAST_Check(ptr noundef %0) #11
  %.not = icmp eq i32 %6, 0
  br i1 %.not, label %7, label %9

7:                                                ; preds = %5
  %8 = load ptr, ptr @PyExc_TypeError, align 8, !tbaa !28
  tail call void @PyErr_SetString(ptr noundef %8, ptr noundef nonnull @.str.10) #11
  br label %92

9:                                                ; preds = %5
  %10 = tail call ptr @_PyArena_New() #11
  %11 = icmp eq ptr %10, null
  br i1 %11, label %92, label %12

12:                                               ; preds = %9
  %13 = tail call ptr @PyAST_obj2mod(ptr noundef %0, ptr noundef nonnull %10, i32 noundef %4) #11
  %14 = icmp eq ptr %13, null
  br i1 %14, label %17, label %15

15:                                               ; preds = %12
  %16 = tail call i32 @_PyAST_Validate(ptr noundef nonnull %13) #11
  %.not64 = icmp eq i32 %16, 0
  br i1 %.not64, label %17, label %18

17:                                               ; preds = %15, %12
  tail call void @_PyArena_Free(ptr noundef nonnull %10) #11
  br label %92

18:                                               ; preds = %15
  %19 = tail call fastcc ptr @new_compiler(ptr noundef nonnull %13, ptr noundef %1, ptr noundef %2, i32 noundef %3, ptr noundef nonnull %10)
  %20 = icmp eq ptr %19, null
  br i1 %20, label %21, label %22

21:                                               ; preds = %18
  tail call void @_PyArena_Free(ptr noundef nonnull %10) #11
  br label %92

22:                                               ; preds = %18
  %23 = getelementptr inbounds nuw i8, ptr %19, i64 80
  store i8 1, ptr %23, align 8, !tbaa !70
  %24 = tail call ptr @PyDict_New() #11
  %25 = icmp eq ptr %24, null
  br i1 %25, label %92, label %26

26:                                               ; preds = %22
  %27 = tail call fastcc i32 @compiler_codegen(ptr noundef %19, ptr noundef nonnull %13)
  %28 = icmp slt i32 %27, 0
  br i1 %28, label %.thread, label %29

29:                                               ; preds = %26
  %30 = getelementptr inbounds nuw i8, ptr %19, i64 64
  %31 = load ptr, ptr %30, align 8, !tbaa !42
  %32 = getelementptr inbounds nuw i8, ptr %31, i64 960
  %33 = load i64, ptr %32, align 8, !tbaa !113
  %34 = tail call ptr @PyLong_FromLong(i64 noundef %33) #11
  %35 = icmp eq ptr %34, null
  br i1 %35, label %.thread, label %36

36:                                               ; preds = %29
  %37 = tail call i32 @PyDict_SetItemString(ptr noundef nonnull %24, ptr noundef nonnull @.str.11, ptr noundef nonnull %34) #11
  %38 = load i32, ptr %34, align 8, !tbaa !4
  %.not.i.i = icmp sgt i32 %38, -1
  br i1 %.not.i.i, label %39, label %Py_XDECREF.exit

39:                                               ; preds = %36
  %40 = add nsw i32 %38, -1
  store i32 %40, ptr %34, align 8, !tbaa !4
  %41 = icmp eq i32 %40, 0
  br i1 %41, label %42, label %Py_XDECREF.exit

42:                                               ; preds = %39
  tail call void @_Py_Dealloc(ptr noundef nonnull %34) #11
  br label %Py_XDECREF.exit

Py_XDECREF.exit:                                  ; preds = %36, %39, %42
  %43 = icmp slt i32 %37, 0
  br i1 %43, label %.thread, label %44

44:                                               ; preds = %Py_XDECREF.exit
  %45 = getelementptr inbounds nuw i8, ptr %31, i64 968
  %46 = load i64, ptr %45, align 8, !tbaa !114
  %47 = tail call ptr @PyLong_FromLong(i64 noundef %46) #11
  %48 = icmp eq ptr %47, null
  br i1 %48, label %.thread, label %49

49:                                               ; preds = %44
  %50 = tail call i32 @PyDict_SetItemString(ptr noundef nonnull %24, ptr noundef nonnull @.str.12, ptr noundef nonnull %47) #11
  %51 = load i32, ptr %47, align 8, !tbaa !4
  %.not.i.i75 = icmp sgt i32 %51, -1
  br i1 %.not.i.i75, label %52, label %Py_XDECREF.exit76

52:                                               ; preds = %49
  %53 = add nsw i32 %51, -1
  store i32 %53, ptr %47, align 8, !tbaa !4
  %54 = icmp eq i32 %53, 0
  br i1 %54, label %55, label %Py_XDECREF.exit76

55:                                               ; preds = %52
  tail call void @_Py_Dealloc(ptr noundef nonnull %47) #11
  br label %Py_XDECREF.exit76

Py_XDECREF.exit76:                                ; preds = %49, %52, %55
  %56 = icmp slt i32 %50, 0
  br i1 %56, label %.thread, label %57

57:                                               ; preds = %Py_XDECREF.exit76
  %58 = getelementptr inbounds nuw i8, ptr %31, i64 976
  %59 = load i64, ptr %58, align 8, !tbaa !115
  %60 = tail call ptr @PyLong_FromLong(i64 noundef %59) #11
  %61 = icmp eq ptr %60, null
  br i1 %61, label %.thread, label %62

62:                                               ; preds = %57
  %63 = tail call i32 @PyDict_SetItemString(ptr noundef nonnull %24, ptr noundef nonnull @.str.13, ptr noundef nonnull %60) #11
  %64 = load i32, ptr %60, align 8, !tbaa !4
  %.not.i.i78 = icmp sgt i32 %64, -1
  br i1 %.not.i.i78, label %65, label %Py_XDECREF.exit79

65:                                               ; preds = %62
  %66 = add nsw i32 %64, -1
  store i32 %66, ptr %60, align 8, !tbaa !4
  %67 = icmp eq i32 %66, 0
  br i1 %67, label %68, label %Py_XDECREF.exit79

68:                                               ; preds = %65
  tail call void @_Py_Dealloc(ptr noundef nonnull %60) #11
  br label %Py_XDECREF.exit79

Py_XDECREF.exit79:                                ; preds = %62, %65, %68
  %69 = icmp slt i32 %63, 0
  br i1 %69, label %.thread, label %70

70:                                               ; preds = %Py_XDECREF.exit79
  %71 = load i32, ptr %13, align 8, !tbaa !97
  %72 = icmp ne i32 %71, 3
  %73 = zext i1 %72 to i32
  %74 = tail call i32 @_PyCodegen_AddReturnAtEnd(ptr noundef nonnull %19, i32 noundef %73) #11
  %75 = icmp slt i32 %74, 0
  br i1 %75, label %.thread, label %76

76:                                               ; preds = %70
  %77 = load ptr, ptr %30, align 8, !tbaa !42
  %78 = getelementptr inbounds nuw i8, ptr %77, i64 40
  %79 = load ptr, ptr %78, align 8, !tbaa !64
  %80 = tail call i32 @_PyInstructionSequence_ApplyLabelMap(ptr noundef %79) #11
  %81 = icmp slt i32 %80, 0
  br i1 %81, label %92, label %82

82:                                               ; preds = %76
  %83 = load ptr, ptr %30, align 8, !tbaa !42
  %84 = getelementptr inbounds nuw i8, ptr %83, i64 40
  %85 = load ptr, ptr %84, align 8, !tbaa !64
  %86 = tail call ptr (i64, ...) @PyTuple_Pack(i64 noundef 2, ptr noundef %85, ptr noundef nonnull %24) #11
  br label %.thread

.thread:                                          ; preds = %Py_XDECREF.exit79, %57, %Py_XDECREF.exit76, %44, %Py_XDECREF.exit, %29, %82, %26, %70
  %.052 = phi ptr [ null, %26 ], [ null, %70 ], [ %86, %82 ], [ null, %29 ], [ null, %Py_XDECREF.exit ], [ null, %44 ], [ null, %Py_XDECREF.exit76 ], [ null, %57 ], [ null, %Py_XDECREF.exit79 ]
  %87 = load i32, ptr %24, align 8, !tbaa !4
  %.not.i.i81 = icmp sgt i32 %87, -1
  br i1 %.not.i.i81, label %88, label %Py_XDECREF.exit82

88:                                               ; preds = %.thread
  %89 = add nsw i32 %87, -1
  store i32 %89, ptr %24, align 8, !tbaa !4
  %90 = icmp eq i32 %89, 0
  br i1 %90, label %91, label %Py_XDECREF.exit82

91:                                               ; preds = %88
  tail call void @_Py_Dealloc(ptr noundef nonnull %24) #11
  br label %Py_XDECREF.exit82

Py_XDECREF.exit82:                                ; preds = %.thread, %88, %91
  tail call void @_PyCompile_ExitScope(ptr noundef nonnull %19)
  tail call fastcc void @compiler_free(ptr noundef %19)
  tail call void @_PyArena_Free(ptr noundef nonnull %10) #11
  br label %92

92:                                               ; preds = %9, %21, %Py_XDECREF.exit82, %22, %76, %17, %7
  %.0 = phi ptr [ null, %7 ], [ null, %9 ], [ null, %17 ], [ null, %21 ], [ %.052, %Py_XDECREF.exit82 ], [ null, %22 ], [ null, %76 ]
  ret ptr %.0
}